
main:     ファイル形式 elf32-littleriscv


セクション .text.start_ の逆アセンブル:

82000000 <_start>:
82000000:	00000093          	li	ra,0
82000004:	00000113          	li	sp,0
82000008:	00000193          	li	gp,0
8200000c:	00000213          	li	tp,0
82000010:	00000293          	li	t0,0
82000014:	00000313          	li	t1,0
82000018:	00000393          	li	t2,0
8200001c:	00000413          	li	s0,0
82000020:	00000493          	li	s1,0
82000024:	00000513          	li	a0,0
82000028:	00000593          	li	a1,0
8200002c:	00000613          	li	a2,0
82000030:	00000693          	li	a3,0
82000034:	00000713          	li	a4,0
82000038:	00000793          	li	a5,0
8200003c:	00000813          	li	a6,0
82000040:	00000893          	li	a7,0
82000044:	00000913          	li	s2,0
82000048:	00000993          	li	s3,0
8200004c:	00000a13          	li	s4,0
82000050:	00000a93          	li	s5,0
82000054:	00000b13          	li	s6,0
82000058:	00000b93          	li	s7,0
8200005c:	00000c13          	li	s8,0
82000060:	00000c93          	li	s9,0
82000064:	00000d13          	li	s10,0
82000068:	00000d93          	li	s11,0
8200006c:	00000e13          	li	t3,0
82000070:	00000e93          	li	t4,0
82000074:	00000f13          	li	t5,0
82000078:	00000f93          	li	t6,0
8200007c:	00000297          	auipc	t0,0x0
82000080:	58828293          	add	t0,t0,1416 # 82000604 <_data_begin>
82000084:	00000317          	auipc	t1,0x0
82000088:	5c830313          	add	t1,t1,1480 # 8200064c <_data_end>
8200008c:	02000397          	auipc	t2,0x2000
82000090:	f7438393          	add	t2,t2,-140 # 84000000 <BUFFERS>
82000094:	0140006f          	j	820000a8 <_start+0xa8>
82000098:	0002a403          	lw	s0,0(t0)
8200009c:	0083a023          	sw	s0,0(t2)
820000a0:	00428293          	add	t0,t0,4
820000a4:	00438393          	add	t2,t2,4
820000a8:	fe62e8e3          	bltu	t0,t1,82000098 <_start+0x98>
820000ac:	00000297          	auipc	t0,0x0
820000b0:	5a028293          	add	t0,t0,1440 # 8200064c <_data_end>
820000b4:	00000317          	auipc	t1,0x0
820000b8:	5a830313          	add	t1,t1,1448 # 8200065c <_rodata_begin>
820000bc:	02000397          	auipc	t2,0x2000
820000c0:	f8c38393          	add	t2,t2,-116 # 84000048 <RISCV_ARGS_BUFFER>
820000c4:	0140006f          	j	820000d8 <_start+0xd8>
820000c8:	0002a403          	lw	s0,0(t0)
820000cc:	0083a023          	sw	s0,0(t2)
820000d0:	00428293          	add	t0,t0,4
820000d4:	00438393          	add	t2,t2,4
820000d8:	fe62e8e3          	bltu	t0,t1,820000c8 <_start+0xc8>
820000dc:	00000297          	auipc	t0,0x0
820000e0:	58028293          	add	t0,t0,1408 # 8200065c <_rodata_begin>
820000e4:	00000317          	auipc	t1,0x0
820000e8:	58c30313          	add	t1,t1,1420 # 82000670 <_init_array_begin>
820000ec:	02000397          	auipc	t2,0x2000
820000f0:	f6c38393          	add	t2,t2,-148 # 84000058 <_rodata_region>
820000f4:	0140006f          	j	82000108 <_start+0x108>
820000f8:	0002a403          	lw	s0,0(t0)
820000fc:	0083a023          	sw	s0,0(t2)
82000100:	00428293          	add	t0,t0,4
82000104:	00438393          	add	t2,t2,4
82000108:	fe62e8e3          	bltu	t0,t1,820000f8 <_start+0xf8>
8200010c:	00000297          	auipc	t0,0x0
82000110:	56428293          	add	t0,t0,1380 # 82000670 <_init_array_begin>
82000114:	00000317          	auipc	t1,0x0
82000118:	55c30313          	add	t1,t1,1372 # 82000670 <_init_array_begin>
8200011c:	02000397          	auipc	t2,0x2000
82000120:	f5038393          	add	t2,t2,-176 # 8400006c <ZERO>
82000124:	0140006f          	j	82000138 <_start+0x138>
82000128:	0002a403          	lw	s0,0(t0)
8200012c:	0083a023          	sw	s0,0(t2)
82000130:	00428293          	add	t0,t0,4
82000134:	00438393          	add	t2,t2,4
82000138:	fe62e8e3          	bltu	t0,t1,82000128 <_start+0x128>
8200013c:	02000297          	auipc	t0,0x2000
82000140:	f3028293          	add	t0,t0,-208 # 8400006c <ZERO>
82000144:	02000317          	auipc	t1,0x2000
82000148:	f2830313          	add	t1,t1,-216 # 8400006c <ZERO>
8200014c:	00c0006f          	j	82000158 <_start+0x158>
82000150:	0002a023          	sw	zero,0(t0)
82000154:	00428293          	add	t0,t0,4
82000158:	fe62ece3          	bltu	t0,t1,82000150 <_start+0x150>
8200015c:	02000297          	auipc	t0,0x2000
82000160:	f1028293          	add	t0,t0,-240 # 8400006c <ZERO>
82000164:	02000317          	auipc	t1,0x2000
82000168:	f1030313          	add	t1,t1,-240 # 84000074 <__global_pointer__>
8200016c:	00c0006f          	j	82000178 <_start+0x178>
82000170:	0002a023          	sw	zero,0(t0)
82000174:	00428293          	add	t0,t0,4
82000178:	fe62ece3          	bltu	t0,t1,82000170 <_start+0x170>
8200017c:	00000293          	li	t0,0
82000180:	00000313          	li	t1,0
82000184:	00000393          	li	t2,0
82000188:	00000413          	li	s0,0
8200018c:	84002137          	lui	sp,0x84002
82000190:	00010113          	mv	sp,sp
82000194:	840001b7          	lui	gp,0x84000
82000198:	07418193          	add	gp,gp,116 # 84000074 <__global_pointer__>
8200019c:	3d0000ef          	jal	8200056c <main>
820001a0:	00000013          	nop

セクション .text の逆アセンブル:

820001a4 <alloc>:
820001a4:	840007b7          	lui	a5,0x84000
820001a8:	0707a603          	lw	a2,112(a5) # 84000070 <BUFFERS_AVAIL>
820001ac:	01200693          	li	a3,18
820001b0:	00000793          	li	a5,0
820001b4:	00f60733          	add	a4,a2,a5
820001b8:	00074583          	lbu	a1,0(a4)
820001bc:	02058663          	beqz	a1,820001e8 <alloc+0x44>
820001c0:	00070023          	sb	zero,0(a4)
820001c4:	84000737          	lui	a4,0x84000
820001c8:	00070713          	mv	a4,a4
820001cc:	00279793          	sll	a5,a5,0x2
820001d0:	00f707b3          	add	a5,a4,a5
820001d4:	84000737          	lui	a4,0x84000
820001d8:	05472503          	lw	a0,84(a4) # 84000054 <base_addr>
820001dc:	0007a783          	lw	a5,0(a5)
820001e0:	00f50533          	add	a0,a0,a5
820001e4:	00008067          	ret
820001e8:	00178793          	add	a5,a5,1
820001ec:	fcd794e3          	bne	a5,a3,820001b4 <alloc+0x10>
820001f0:	00000513          	li	a0,0
820001f4:	00008067          	ret

820001f8 <mfree>:
820001f8:	840007b7          	lui	a5,0x84000
820001fc:	0547a783          	lw	a5,84(a5) # 84000054 <base_addr>
82000200:	00100713          	li	a4,1
82000204:	40f50533          	sub	a0,a0,a5
82000208:	00a007b7          	lui	a5,0xa00
8200020c:	02f55533          	divu	a0,a0,a5
82000210:	840007b7          	lui	a5,0x84000
82000214:	0707a783          	lw	a5,112(a5) # 84000070 <BUFFERS_AVAIL>
82000218:	00a787b3          	add	a5,a5,a0
8200021c:	00e78023          	sb	a4,0(a5)
82000220:	00008067          	ret

82000224 <preprocess>:
82000224:	fd010113          	add	sp,sp,-48 # 84001fd0 <__global_pointer__+0x1f5c>
82000228:	02112623          	sw	ra,44(sp)
8200022c:	00c12623          	sw	a2,12(sp)
82000230:	02812423          	sw	s0,40(sp)
82000234:	02912223          	sw	s1,36(sp)
82000238:	03212023          	sw	s2,32(sp)
8200023c:	01312e23          	sw	s3,28(sp)
82000240:	01412c23          	sw	s4,24(sp)
82000244:	01512a23          	sw	s5,20(sp)
82000248:	01612823          	sw	s6,16(sp)
8200024c:	00058a93          	mv	s5,a1
82000250:	00068b13          	mv	s6,a3
82000254:	00050a13          	mv	s4,a0
82000258:	f4dff0ef          	jal	820001a4 <alloc>
8200025c:	00050913          	mv	s2,a0
82000260:	f45ff0ef          	jal	820001a4 <alloc>
82000264:	00050493          	mv	s1,a0
82000268:	f3dff0ef          	jal	820001a4 <alloc>
8200026c:	00050413          	mv	s0,a0
82000270:	f35ff0ef          	jal	820001a4 <alloc>
82000274:	84000737          	lui	a4,0x84000
82000278:	05872607          	flw	fa2,88(a4) # 84000058 <_rodata_region>
8200027c:	84000737          	lui	a4,0x84000
82000280:	05c72707          	flw	fa4,92(a4) # 8400005c <_rodata_region+0x4>
82000284:	84000737          	lui	a4,0x84000
82000288:	00100793          	li	a5,1
8200028c:	06072507          	flw	fa0,96(a4) # 84000060 <_rodata_region+0x8>
82000290:	00c12687          	flw	fa3,12(sp)
82000294:	016796b3          	sll	a3,a5,s6
82000298:	d006f5d3          	fcvt.s.w	fa1,a3
8200029c:	00050993          	mv	s3,a0
820002a0:	000a0793          	mv	a5,s4
820002a4:	00000313          	li	t1,0
820002a8:	00000813          	li	a6,0
820002ac:	00000693          	li	a3,0
820002b0:	47f00593          	li	a1,1151
820002b4:	01700e13          	li	t3,23
820002b8:	09584e63          	blt	a6,s5,82000354 <preprocess+0x130>
820002bc:	840007b7          	lui	a5,0x84000
820002c0:	0547aa03          	lw	s4,84(a5) # 84000054 <base_addr>
820002c4:	840007b7          	lui	a5,0x84000
820002c8:	0507a783          	lw	a5,80(a5) # 84000050 <LIDAR_IMAGE_BUFFER>
820002cc:	01e60737          	lui	a4,0x1e60
820002d0:	840005b7          	lui	a1,0x84000
820002d4:	00fa0a33          	add	s4,s4,a5
820002d8:	000a0793          	mv	a5,s4
820002dc:	00ea0733          	add	a4,s4,a4
820002e0:	06c5a603          	lw	a2,108(a1) # 8400006c <ZERO>
820002e4:	00478793          	add	a5,a5,4
820002e8:	fec7ae23          	sw	a2,-4(a5)
820002ec:	fef71ae3          	bne	a4,a5,820002e0 <preprocess+0xbc>
820002f0:	00007637          	lui	a2,0x7
820002f4:	00000593          	li	a1,0
820002f8:	00000513          	li	a0,0
820002fc:	c0060613          	add	a2,a2,-1024 # 6c00 <_start-0x81ff9400>
82000300:	01800313          	li	t1,24
82000304:	10a69663          	bne	a3,a0,82000410 <preprocess+0x1ec>
82000308:	00090513          	mv	a0,s2
8200030c:	eedff0ef          	jal	820001f8 <mfree>
82000310:	00048513          	mv	a0,s1
82000314:	ee5ff0ef          	jal	820001f8 <mfree>
82000318:	00040513          	mv	a0,s0
8200031c:	eddff0ef          	jal	820001f8 <mfree>
82000320:	00098513          	mv	a0,s3
82000324:	ed5ff0ef          	jal	820001f8 <mfree>
82000328:	02c12083          	lw	ra,44(sp)
8200032c:	02812403          	lw	s0,40(sp)
82000330:	02412483          	lw	s1,36(sp)
82000334:	02012903          	lw	s2,32(sp)
82000338:	01c12983          	lw	s3,28(sp)
8200033c:	01412a83          	lw	s5,20(sp)
82000340:	01012b03          	lw	s6,16(sp)
82000344:	000a0513          	mv	a0,s4
82000348:	01812a03          	lw	s4,24(sp)
8200034c:	03010113          	add	sp,sp,48
82000350:	00008067          	ret
82000354:	0007a787          	flw	fa5,0(a5)
82000358:	00690733          	add	a4,s2,t1
8200035c:	70c7f7c3          	fmadd.s	fa5,fa5,fa2,fa4
82000360:	c0079553          	fcvt.w.s	a0,fa5,rtz
82000364:	0047a787          	flw	fa5,4(a5)
82000368:	24050513          	add	a0,a0,576
8200036c:	70c7f7cb          	fnmsub.s	fa5,fa5,fa2,fa4
82000370:	c0079653          	fcvt.w.s	a2,fa5,rtz
82000374:	0087a787          	flw	fa5,8(a5)
82000378:	00a72023          	sw	a0,0(a4) # 1e60000 <_start-0x801a0000>
8200037c:	24060613          	add	a2,a2,576
82000380:	00f6f7d3          	fadd.s	fa5,fa3,fa5
82000384:	00648733          	add	a4,s1,t1
82000388:	00c72023          	sw	a2,0(a4)
8200038c:	00640733          	add	a4,s0,t1
82000390:	70a7f7c3          	fmadd.s	fa5,fa5,fa0,fa4
82000394:	c00798d3          	fcvt.w.s	a7,fa5,rtz
82000398:	01172023          	sw	a7,0(a4)
8200039c:	06a5e263          	bltu	a1,a0,82000400 <preprocess+0x1dc>
820003a0:	06c5e063          	bltu	a1,a2,82000400 <preprocess+0x1dc>
820003a4:	051e6e63          	bltu	t3,a7,82000400 <preprocess+0x1dc>
820003a8:	00269713          	sll	a4,a3,0x2
820003ac:	00c7a787          	flw	fa5,12(a5)
820003b0:	00e90eb3          	add	t4,s2,a4
820003b4:	00aea023          	sw	a0,0(t4)
820003b8:	00e48533          	add	a0,s1,a4
820003bc:	00c52023          	sw	a2,0(a0)
820003c0:	00e40733          	add	a4,s0,a4
820003c4:	70b7f7c3          	fmadd.s	fa5,fa5,fa1,fa4
820003c8:	01172023          	sw	a7,0(a4)
820003cc:	84000737          	lui	a4,0x84000
820003d0:	06472007          	flw	ft0,100(a4) # 84000064 <_rodata_region+0xc>
820003d4:	00d98633          	add	a2,s3,a3
820003d8:	07f00713          	li	a4,127
820003dc:	a0f01553          	flt.s	a0,ft0,fa5
820003e0:	00051c63          	bnez	a0,820003f8 <preprocess+0x1d4>
820003e4:	c0079753          	fcvt.w.s	a4,fa5,rtz
820003e8:	01871713          	sll	a4,a4,0x18
820003ec:	41875713          	sra	a4,a4,0x18
820003f0:	00071463          	bnez	a4,820003f8 <preprocess+0x1d4>
820003f4:	00100713          	li	a4,1
820003f8:	00e60023          	sb	a4,0(a2)
820003fc:	00168693          	add	a3,a3,1
82000400:	00180813          	add	a6,a6,1
82000404:	01478793          	add	a5,a5,20
82000408:	00430313          	add	t1,t1,4
8200040c:	eadff06f          	j	820002b8 <preprocess+0x94>
82000410:	00b487b3          	add	a5,s1,a1
82000414:	00b90733          	add	a4,s2,a1
82000418:	0007a783          	lw	a5,0(a5)
8200041c:	00072703          	lw	a4,0(a4)
82000420:	02c787b3          	mul	a5,a5,a2
82000424:	02e30733          	mul	a4,t1,a4
82000428:	00e787b3          	add	a5,a5,a4
8200042c:	00b40733          	add	a4,s0,a1
82000430:	00072703          	lw	a4,0(a4)
82000434:	00e787b3          	add	a5,a5,a4
82000438:	00fa07b3          	add	a5,s4,a5
8200043c:	00a98733          	add	a4,s3,a0
82000440:	00074703          	lbu	a4,0(a4)
82000444:	0007c883          	lbu	a7,0(a5)
82000448:	00070813          	mv	a6,a4
8200044c:	01889e13          	sll	t3,a7,0x18
82000450:	01871713          	sll	a4,a4,0x18
82000454:	41875713          	sra	a4,a4,0x18
82000458:	418e5e13          	sra	t3,t3,0x18
8200045c:	01c75463          	bge	a4,t3,82000464 <preprocess+0x240>
82000460:	00088813          	mv	a6,a7
82000464:	01078023          	sb	a6,0(a5)
82000468:	00150513          	add	a0,a0,1
8200046c:	00458593          	add	a1,a1,4
82000470:	e95ff06f          	j	82000304 <preprocess+0xe0>

82000474 <suppress_predictions_without_lidar_points>:
82000474:	840007b7          	lui	a5,0x84000
82000478:	05c7a707          	flw	fa4,92(a5) # 8400005c <_rodata_region+0x4>
8200047c:	840007b7          	lui	a5,0x84000
82000480:	0687a687          	flw	fa3,104(a5) # 84000068 <_rodata_region+0x10>
82000484:	ff010113          	add	sp,sp,-16
82000488:	00812623          	sw	s0,12(sp)
8200048c:	00912423          	sw	s1,8(sp)
82000490:	00000f13          	li	t5,0
82000494:	00700393          	li	t2,7
82000498:	47800413          	li	s0,1144
8200049c:	48000293          	li	t0,1152
820004a0:	00df4a63          	blt	t5,a3,820004b4 <suppress_predictions_without_lidar_points+0x40>
820004a4:	00c12403          	lw	s0,12(sp)
820004a8:	00812483          	lw	s1,8(sp)
820004ac:	01010113          	add	sp,sp,16
820004b0:	00008067          	ret
820004b4:	0005a787          	flw	fa5,0(a1)
820004b8:	00e7f7d3          	fadd.s	fa5,fa5,fa4
820004bc:	c0079753          	fcvt.w.s	a4,fa5,rtz
820004c0:	0045a787          	flw	fa5,4(a1)
820004c4:	04070713          	add	a4,a4,64
820004c8:	00e7f7d3          	fadd.s	fa5,fa5,fa4
820004cc:	00070813          	mv	a6,a4
820004d0:	c00797d3          	fcvt.w.s	a5,fa5,rtz
820004d4:	04078793          	add	a5,a5,64
820004d8:	00775463          	bge	a4,t2,820004e0 <suppress_predictions_without_lidar_points+0x6c>
820004dc:	00700813          	li	a6,7
820004e0:	ff980313          	add	t1,a6,-7
820004e4:	00078813          	mv	a6,a5
820004e8:	0077d463          	bge	a5,t2,820004f0 <suppress_predictions_without_lidar_points+0x7c>
820004ec:	00700813          	li	a6,7
820004f0:	ff980813          	add	a6,a6,-7
820004f4:	00070893          	mv	a7,a4
820004f8:	00e45463          	bge	s0,a4,82000500 <suppress_predictions_without_lidar_points+0x8c>
820004fc:	47800893          	li	a7,1144
82000500:	00788e13          	add	t3,a7,7
82000504:	00078893          	mv	a7,a5
82000508:	00f45463          	bge	s0,a5,82000510 <suppress_predictions_without_lidar_points+0x9c>
8200050c:	47800893          	li	a7,1144
82000510:	00788893          	add	a7,a7,7
82000514:	03184663          	blt	a6,a7,82000540 <suppress_predictions_without_lidar_points+0xcc>
82000518:	025787b3          	mul	a5,a5,t0
8200051c:	00e787b3          	add	a5,a5,a4
82000520:	00279793          	sll	a5,a5,0x2
82000524:	00f607b3          	add	a5,a2,a5
82000528:	0007a787          	flw	fa5,0(a5)
8200052c:	10d7f7d3          	fmul.s	fa5,fa5,fa3
82000530:	00f7a027          	fsw	fa5,0(a5)
82000534:	001f0f13          	add	t5,t5,1
82000538:	00858593          	add	a1,a1,8
8200053c:	f65ff06f          	j	820004a0 <suppress_predictions_without_lidar_points+0x2c>
82000540:	02580fb3          	mul	t6,a6,t0
82000544:	00030e93          	mv	t4,t1
82000548:	01f50fb3          	add	t6,a0,t6
8200054c:	01cec663          	blt	t4,t3,82000558 <suppress_predictions_without_lidar_points+0xe4>
82000550:	00180813          	add	a6,a6,1
82000554:	fc1ff06f          	j	82000514 <suppress_predictions_without_lidar_points+0xa0>
82000558:	01df84b3          	add	s1,t6,t4
8200055c:	00048483          	lb	s1,0(s1)
82000560:	fc904ae3          	bgtz	s1,82000534 <suppress_predictions_without_lidar_points+0xc0>
82000564:	001e8e93          	add	t4,t4,1
82000568:	fe5ff06f          	j	8200054c <suppress_predictions_without_lidar_points+0xd8>

8200056c <main>:
8200056c:	ff010113          	add	sp,sp,-16
82000570:	00812423          	sw	s0,8(sp)
82000574:	800307b7          	lui	a5,0x80030
82000578:	00112623          	sw	ra,12(sp)
8200057c:	0007a223          	sw	zero,4(a5) # 80030004 <_start-0x1fcfffc>
82000580:	0007a023          	sw	zero,0(a5)
82000584:	84000737          	lui	a4,0x84000
82000588:	04872403          	lw	s0,72(a4) # 84000048 <RISCV_ARGS_BUFFER>
8200058c:	100007b7          	lui	a5,0x10000
82000590:	00878433          	add	s0,a5,s0
82000594:	00042703          	lw	a4,0(s0)
82000598:	02071e63          	bnez	a4,820005d4 <main+0x68>
8200059c:	04042503          	lw	a0,64(s0)
820005a0:	05842683          	lw	a3,88(s0)
820005a4:	05042603          	lw	a2,80(s0)
820005a8:	04842583          	lw	a1,72(s0)
820005ac:	00a78533          	add	a0,a5,a0
820005b0:	c75ff0ef          	jal	82000224 <preprocess>
820005b4:	840007b7          	lui	a5,0x84000
820005b8:	0547a783          	lw	a5,84(a5) # 84000054 <base_addr>
820005bc:	40f50533          	sub	a0,a0,a5
820005c0:	06a42023          	sw	a0,96(s0)
820005c4:	800307b7          	lui	a5,0x80030
820005c8:	00100713          	li	a4,1
820005cc:	00e7a023          	sw	a4,0(a5) # 80030000 <_start-0x1fd0000>
820005d0:	0000006f          	j	820005d0 <main+0x64>
820005d4:	00100693          	li	a3,1
820005d8:	fed716e3          	bne	a4,a3,820005c4 <main+0x58>
820005dc:	84000737          	lui	a4,0x84000
820005e0:	05042603          	lw	a2,80(s0)
820005e4:	04842583          	lw	a1,72(s0)
820005e8:	05072503          	lw	a0,80(a4) # 84000050 <LIDAR_IMAGE_BUFFER>
820005ec:	05842683          	lw	a3,88(s0)
820005f0:	00c78633          	add	a2,a5,a2
820005f4:	00b785b3          	add	a1,a5,a1
820005f8:	00a78533          	add	a0,a5,a0
820005fc:	e79ff0ef          	jal	82000474 <suppress_predictions_without_lidar_points>
82000600:	fc5ff06f          	j	820005c4 <main+0x58>

セクション .data の逆アセンブル:

84000000 <BUFFERS>:
84000000:	0000                	.2byte	0x0
84000002:	0000                	.2byte	0x0
84000004:	0000                	.2byte	0x0
84000006:	00a0                	.2byte	0xa0
84000008:	0000                	.2byte	0x0
8400000a:	0140                	.2byte	0x140
8400000c:	0000                	.2byte	0x0
8400000e:	01e0                	.2byte	0x1e0
84000010:	0000                	.2byte	0x0
84000012:	0280                	.2byte	0x280
84000014:	0000                	.2byte	0x0
84000016:	0320                	.2byte	0x320
84000018:	0000                	.2byte	0x0
8400001a:	03c0                	.2byte	0x3c0
8400001c:	0000                	.2byte	0x0
8400001e:	0460                	.2byte	0x460
84000020:	0000                	.2byte	0x0
84000022:	0500                	.2byte	0x500
84000024:	0000                	.2byte	0x0
84000026:	05a0                	.2byte	0x5a0
84000028:	0000                	.2byte	0x0
8400002a:	0640                	.2byte	0x640
8400002c:	0000                	.2byte	0x0
8400002e:	06e0                	.2byte	0x6e0
84000030:	0000                	.2byte	0x0
84000032:	0780                	.2byte	0x780
84000034:	0000                	.2byte	0x0
84000036:	0820                	.2byte	0x820
84000038:	0000                	.2byte	0x0
8400003a:	08c0                	.2byte	0x8c0
8400003c:	0000                	.2byte	0x0
8400003e:	0960                	.2byte	0x960
84000040:	0000                	.2byte	0x0
84000042:	0a00                	.2byte	0xa00
84000044:	0000                	.2byte	0x0
84000046:	0aa0                	.2byte	0xaa0

セクション .sdata の逆アセンブル:

84000048 <RISCV_ARGS_BUFFER>:
84000048:	0000                	.2byte	0x0
8400004a:	0ef0                	.2byte	0xef0

8400004c <RECORD_BUFFER>:
8400004c:	0000                	.2byte	0x0
8400004e:	0dc0                	.2byte	0xdc0

84000050 <LIDAR_IMAGE_BUFFER>:
84000050:	0000                	.2byte	0x0
84000052:	0b40                	.2byte	0xb40

84000054 <base_addr>:
84000054:	0000                	.2byte	0x0
84000056:	1000                	.2byte	0x1000

セクション .rodata の逆アセンブル:

84000058 <.rodata>:
84000058:	0000                	.2byte	0x0
8400005a:	4120                	.2byte	0x4120
8400005c:	0000                	.2byte	0x0
8400005e:	3f00                	.2byte	0x3f00
84000060:	0000                	.2byte	0x0
84000062:	40a0                	.2byte	0x40a0
84000064:	0000                	.2byte	0x0
84000066:	42fe                	.2byte	0x42fe
84000068:	cccd                	.2byte	0xcccd
8400006a:	3dcc                	.2byte	0x3dcc

セクション .sbss の逆アセンブル:

8400006c <ZERO>:
8400006c:	0000                	.2byte	0x0
	...

84000070 <BUFFERS_AVAIL>:
84000070:	0000                	.2byte	0x0
	...

セクション .comment の逆アセンブル:

00000000 <.comment>:
   0:	3a434347          	.4byte	0x3a434347
   4:	2820                	.2byte	0x2820
   6:	65653267          	.4byte	0x65653267
   a:	6535                	.2byte	0x6535
   c:	3334                	.2byte	0x3334
   e:	3030                	.2byte	0x3030
  10:	3831                	.2byte	0x3831
  12:	2029                	.2byte	0x2029
  14:	3231                	.2byte	0x3231
  16:	322e                	.2byte	0x322e
  18:	302e                	.2byte	0x302e
	...

セクション .riscv.attributes の逆アセンブル:

00000000 <.riscv.attributes>:
   0:	2e41                	.2byte	0x2e41
   2:	0000                	.2byte	0x0
   4:	7200                	.2byte	0x7200
   6:	7369                	.2byte	0x7369
   8:	01007663          	bgeu	zero,a6,14 <_start-0x81ffffec>
   c:	0024                	.2byte	0x24
   e:	0000                	.2byte	0x0
  10:	1004                	.2byte	0x1004
  12:	7205                	.2byte	0x7205
  14:	3376                	.2byte	0x3376
  16:	6932                	.2byte	0x6932
  18:	7032                	.2byte	0x7032
  1a:	5f30                	.2byte	0x5f30
  1c:	326d                	.2byte	0x326d
  1e:	3070                	.2byte	0x3070
  20:	665f 7032 5f30      	.byte	0x5f, 0x66, 0x32, 0x70, 0x30, 0x5f
  26:	6d7a                	.2byte	0x6d7a
  28:	756d                	.2byte	0x756d
  2a:	316c                	.2byte	0x316c
  2c:	3070                	.2byte	0x3070
	...
