
main:     ファイル形式 elf32-littleriscv


セクション .text.start_ の逆アセンブル:

82000000 <_start>:
82000000:	00000093          	li	ra,0
82000004:	00000113          	li	sp,0
82000008:	00000193          	li	gp,0
8200000c:	00000213          	li	tp,0
82000010:	00000293          	li	t0,0
82000014:	00000313          	li	t1,0
82000018:	00000393          	li	t2,0
8200001c:	00000413          	li	s0,0
82000020:	00000493          	li	s1,0
82000024:	00000513          	li	a0,0
82000028:	00000593          	li	a1,0
8200002c:	00000613          	li	a2,0
82000030:	00000693          	li	a3,0
82000034:	00000713          	li	a4,0
82000038:	00000793          	li	a5,0
8200003c:	00000813          	li	a6,0
82000040:	00000893          	li	a7,0
82000044:	00000913          	li	s2,0
82000048:	00000993          	li	s3,0
8200004c:	00000a13          	li	s4,0
82000050:	00000a93          	li	s5,0
82000054:	00000b13          	li	s6,0
82000058:	00000b93          	li	s7,0
8200005c:	00000c13          	li	s8,0
82000060:	00000c93          	li	s9,0
82000064:	00000d13          	li	s10,0
82000068:	00000d93          	li	s11,0
8200006c:	00000e13          	li	t3,0
82000070:	00000e93          	li	t4,0
82000074:	00000f13          	li	t5,0
82000078:	00000f93          	li	t6,0
8200007c:	00001297          	auipc	t0,0x1
82000080:	fa828293          	add	t0,t0,-88 # 82001024 <_data_begin>
82000084:	00001317          	auipc	t1,0x1
82000088:	fe830313          	add	t1,t1,-24 # 8200106c <_data_end>
8200008c:	02000397          	auipc	t2,0x2000
82000090:	f7438393          	add	t2,t2,-140 # 84000000 <BUFFERS>
82000094:	0140006f          	j	820000a8 <_start+0xa8>
82000098:	0002a403          	lw	s0,0(t0)
8200009c:	0083a023          	sw	s0,0(t2)
820000a0:	00428293          	add	t0,t0,4
820000a4:	00438393          	add	t2,t2,4
820000a8:	fe62e8e3          	bltu	t0,t1,82000098 <_start+0x98>
820000ac:	00001297          	auipc	t0,0x1
820000b0:	fc028293          	add	t0,t0,-64 # 8200106c <_data_end>
820000b4:	00001317          	auipc	t1,0x1
820000b8:	fc830313          	add	t1,t1,-56 # 8200107c <_rodata_begin>
820000bc:	02000397          	auipc	t2,0x2000
820000c0:	f8c38393          	add	t2,t2,-116 # 84000048 <RISCV_ARGS_BUFFER>
820000c4:	0140006f          	j	820000d8 <_start+0xd8>
820000c8:	0002a403          	lw	s0,0(t0)
820000cc:	0083a023          	sw	s0,0(t2)
820000d0:	00428293          	add	t0,t0,4
820000d4:	00438393          	add	t2,t2,4
820000d8:	fe62e8e3          	bltu	t0,t1,820000c8 <_start+0xc8>
820000dc:	00001297          	auipc	t0,0x1
820000e0:	fa028293          	add	t0,t0,-96 # 8200107c <_rodata_begin>
820000e4:	00001317          	auipc	t1,0x1
820000e8:	fc830313          	add	t1,t1,-56 # 820010ac <_init_array_begin>
820000ec:	02000397          	auipc	t2,0x2000
820000f0:	f6c38393          	add	t2,t2,-148 # 84000058 <_rodata_region>
820000f4:	0140006f          	j	82000108 <_start+0x108>
820000f8:	0002a403          	lw	s0,0(t0)
820000fc:	0083a023          	sw	s0,0(t2)
82000100:	00428293          	add	t0,t0,4
82000104:	00438393          	add	t2,t2,4
82000108:	fe62e8e3          	bltu	t0,t1,820000f8 <_start+0xf8>
8200010c:	00001297          	auipc	t0,0x1
82000110:	fa028293          	add	t0,t0,-96 # 820010ac <_init_array_begin>
82000114:	00001317          	auipc	t1,0x1
82000118:	f9830313          	add	t1,t1,-104 # 820010ac <_init_array_begin>
8200011c:	02000397          	auipc	t2,0x2000
82000120:	f6c38393          	add	t2,t2,-148 # 84000088 <ZERO>
82000124:	0140006f          	j	82000138 <_start+0x138>
82000128:	0002a403          	lw	s0,0(t0)
8200012c:	0083a023          	sw	s0,0(t2)
82000130:	00428293          	add	t0,t0,4
82000134:	00438393          	add	t2,t2,4
82000138:	fe62e8e3          	bltu	t0,t1,82000128 <_start+0x128>
8200013c:	02000297          	auipc	t0,0x2000
82000140:	f4c28293          	add	t0,t0,-180 # 84000088 <ZERO>
82000144:	02000317          	auipc	t1,0x2000
82000148:	f4430313          	add	t1,t1,-188 # 84000088 <ZERO>
8200014c:	00c0006f          	j	82000158 <_start+0x158>
82000150:	0002a023          	sw	zero,0(t0)
82000154:	00428293          	add	t0,t0,4
82000158:	fe62ece3          	bltu	t0,t1,82000150 <_start+0x150>
8200015c:	02000297          	auipc	t0,0x2000
82000160:	f2c28293          	add	t0,t0,-212 # 84000088 <ZERO>
82000164:	02000317          	auipc	t1,0x2000
82000168:	f2c30313          	add	t1,t1,-212 # 84000090 <__global_pointer__>
8200016c:	00c0006f          	j	82000178 <_start+0x178>
82000170:	0002a023          	sw	zero,0(t0)
82000174:	00428293          	add	t0,t0,4
82000178:	fe62ece3          	bltu	t0,t1,82000170 <_start+0x170>
8200017c:	00000293          	li	t0,0
82000180:	00000313          	li	t1,0
82000184:	00000393          	li	t2,0
82000188:	00000413          	li	s0,0
8200018c:	84002137          	lui	sp,0x84002
82000190:	00010113          	mv	sp,sp
82000194:	840001b7          	lui	gp,0x84000
82000198:	09018193          	add	gp,gp,144 # 84000090 <__global_pointer__>
8200019c:	5ad000ef          	jal	82000f48 <main>
820001a0:	00000013          	nop

セクション .text の逆アセンブル:

820001a4 <sort_predictions.part.0>:
820001a4:	ff010113          	add	sp,sp,-16 # 84001ff0 <__global_pointer__+0x1f60>
820001a8:	84000fb7          	lui	t6,0x84000
820001ac:	00812623          	sw	s0,12(sp)
820001b0:	08cfa703          	lw	a4,140(t6) # 8400008c <BUFFERS_AVAIL>
820001b4:	00912423          	sw	s1,8(sp)
820001b8:	00058413          	mv	s0,a1
820001bc:	00000793          	li	a5,0
820001c0:	01200613          	li	a2,18
820001c4:	0100006f          	j	820001d4 <sort_predictions.part.0+0x30>
820001c8:	00178793          	add	a5,a5,1
820001cc:	00170713          	add	a4,a4,1
820001d0:	26c78263          	beq	a5,a2,82000434 <sort_predictions.part.0+0x290>
820001d4:	00074683          	lbu	a3,0(a4)
820001d8:	fe0688e3          	beqz	a3,820001c8 <sort_predictions.part.0+0x24>
820001dc:	00070023          	sb	zero,0(a4)
820001e0:	84000737          	lui	a4,0x84000
820001e4:	00070713          	mv	a4,a4
820001e8:	00279793          	sll	a5,a5,0x2
820001ec:	00f707b3          	add	a5,a4,a5
820001f0:	0007a483          	lw	s1,0(a5)
820001f4:	840007b7          	lui	a5,0x84000
820001f8:	0547a783          	lw	a5,84(a5) # 84000054 <base_addr>
820001fc:	00052787          	flw	fa5,0(a0)
82000200:	00100713          	li	a4,1
82000204:	00978633          	add	a2,a5,s1
82000208:	00f62027          	fsw	fa5,0(a2)
8200020c:	00452707          	flw	fa4,4(a0)
82000210:	00e62227          	fsw	fa4,4(a2)
82000214:	00852707          	flw	fa4,8(a0)
82000218:	00e62427          	fsw	fa4,8(a2)
8200021c:	00c52707          	flw	fa4,12(a0)
82000220:	00e62627          	fsw	fa4,12(a2)
82000224:	01052707          	flw	fa4,16(a0)
82000228:	00e62827          	fsw	fa4,16(a2)
8200022c:	20875063          	bge	a4,s0,8200042c <sort_predictions.part.0+0x288>
82000230:	01452707          	flw	fa4,20(a0)
82000234:	01850313          	add	t1,a0,24
82000238:	00000e93          	li	t4,0
8200023c:	a0e79753          	flt.s	a4,fa5,fa4
82000240:	01460e13          	add	t3,a2,20
82000244:	01c50593          	add	a1,a0,28
82000248:	02050393          	add	t2,a0,32
8200024c:	02450293          	add	t0,a0,36
82000250:	00100f13          	li	t5,1
82000254:	000e8793          	mv	a5,t4
82000258:	ffc30813          	add	a6,t1,-4
8200025c:	0c070e63          	beqz	a4,82000338 <sort_predictions.part.0+0x194>
82000260:	0e0e8263          	beqz	t4,82000344 <sort_predictions.part.0+0x1a0>
82000264:	000e0713          	mv	a4,t3
82000268:	00c0006f          	j	82000274 <sort_predictions.part.0+0xd0>
8200026c:	fec70713          	add	a4,a4,-20 # 83ffffec <_init_array_begin+0x1ffef40>
82000270:	0c078a63          	beqz	a5,82000344 <sort_predictions.part.0+0x1a0>
82000274:	00082787          	flw	fa5,0(a6)
82000278:	fd872707          	flw	fa4,-40(a4)
8200027c:	00078893          	mv	a7,a5
82000280:	fff78793          	add	a5,a5,-1
82000284:	a0f716d3          	flt.s	a3,fa4,fa5
82000288:	fe0692e3          	bnez	a3,8200026c <sort_predictions.part.0+0xc8>
8200028c:	00289793          	sll	a5,a7,0x2
82000290:	011787b3          	add	a5,a5,a7
82000294:	00279713          	sll	a4,a5,0x2
82000298:	00e606b3          	add	a3,a2,a4
8200029c:	000e0793          	mv	a5,t3
820002a0:	03e8da63          	bge	a7,t5,820002d4 <sort_predictions.part.0+0x130>
820002a4:	fec7a587          	flw	fa1,-20(a5)
820002a8:	ff07a607          	flw	fa2,-16(a5)
820002ac:	ff47a687          	flw	fa3,-12(a5)
820002b0:	ff87a707          	flw	fa4,-8(a5)
820002b4:	ffc7a787          	flw	fa5,-4(a5)
820002b8:	00b7a027          	fsw	fa1,0(a5)
820002bc:	00c7a227          	fsw	fa2,4(a5)
820002c0:	00d7a427          	fsw	fa3,8(a5)
820002c4:	00e7a627          	fsw	fa4,12(a5)
820002c8:	00f7a827          	fsw	fa5,16(a5)
820002cc:	fec78793          	add	a5,a5,-20
820002d0:	fcf69ae3          	bne	a3,a5,820002a4 <sort_predictions.part.0+0x100>
820002d4:	00082787          	flw	fa5,0(a6)
820002d8:	00e607b3          	add	a5,a2,a4
820002dc:	001f0f13          	add	t5,t5,1
820002e0:	00f7a027          	fsw	fa5,0(a5)
820002e4:	00032787          	flw	fa5,0(t1)
820002e8:	001e8e93          	add	t4,t4,1
820002ec:	01430313          	add	t1,t1,20
820002f0:	00f7a227          	fsw	fa5,4(a5)
820002f4:	0005a787          	flw	fa5,0(a1)
820002f8:	01438393          	add	t2,t2,20
820002fc:	01458593          	add	a1,a1,20
82000300:	00f7a427          	fsw	fa5,8(a5)
82000304:	fec3a787          	flw	fa5,-20(t2)
82000308:	01428293          	add	t0,t0,20
8200030c:	00f7a627          	fsw	fa5,12(a5)
82000310:	fec2a787          	flw	fa5,-20(t0)
82000314:	00f7a827          	fsw	fa5,16(a5)
82000318:	0a8f0263          	beq	t5,s0,820003bc <sort_predictions.part.0+0x218>
8200031c:	000e2787          	flw	fa5,0(t3)
82000320:	ffc32707          	flw	fa4,-4(t1)
82000324:	014e0e13          	add	t3,t3,20
82000328:	000e8793          	mv	a5,t4
8200032c:	a0e79753          	flt.s	a4,fa5,fa4
82000330:	ffc30813          	add	a6,t1,-4
82000334:	f20716e3          	bnez	a4,82000260 <sort_predictions.part.0+0xbc>
82000338:	40a307b3          	sub	a5,t1,a0
8200033c:	ffc78713          	add	a4,a5,-4
82000340:	f95ff06f          	j	820002d4 <sort_predictions.part.0+0x130>
82000344:	000e0793          	mv	a5,t3
82000348:	fec7a587          	flw	fa1,-20(a5)
8200034c:	ff07a607          	flw	fa2,-16(a5)
82000350:	ff47a687          	flw	fa3,-12(a5)
82000354:	ff87a707          	flw	fa4,-8(a5)
82000358:	ffc7a787          	flw	fa5,-4(a5)
8200035c:	00b7a027          	fsw	fa1,0(a5)
82000360:	00c7a227          	fsw	fa2,4(a5)
82000364:	00d7a427          	fsw	fa3,8(a5)
82000368:	00e7a627          	fsw	fa4,12(a5)
8200036c:	00f7a827          	fsw	fa5,16(a5)
82000370:	fec78793          	add	a5,a5,-20
82000374:	fcf61ae3          	bne	a2,a5,82000348 <sort_predictions.part.0+0x1a4>
82000378:	00082787          	flw	fa5,0(a6)
8200037c:	001f0f13          	add	t5,t5,1
82000380:	001e8e93          	add	t4,t4,1
82000384:	00f62027          	fsw	fa5,0(a2)
82000388:	00032787          	flw	fa5,0(t1)
8200038c:	01458593          	add	a1,a1,20
82000390:	01430313          	add	t1,t1,20
82000394:	00f62227          	fsw	fa5,4(a2)
82000398:	fec5a787          	flw	fa5,-20(a1)
8200039c:	01438393          	add	t2,t2,20
820003a0:	01428293          	add	t0,t0,20
820003a4:	00f62427          	fsw	fa5,8(a2)
820003a8:	fec3a787          	flw	fa5,-20(t2)
820003ac:	00f62627          	fsw	fa5,12(a2)
820003b0:	fec2a787          	flw	fa5,-20(t0)
820003b4:	00f62827          	fsw	fa5,16(a2)
820003b8:	f68f12e3          	bne	t5,s0,8200031c <sort_predictions.part.0+0x178>
820003bc:	00241713          	sll	a4,s0,0x2
820003c0:	00870733          	add	a4,a4,s0
820003c4:	00271713          	sll	a4,a4,0x2
820003c8:	00060793          	mv	a5,a2
820003cc:	00e60733          	add	a4,a2,a4
820003d0:	0007a787          	flw	fa5,0(a5)
820003d4:	01478793          	add	a5,a5,20
820003d8:	01450513          	add	a0,a0,20
820003dc:	fef52627          	fsw	fa5,-20(a0)
820003e0:	ff07a787          	flw	fa5,-16(a5)
820003e4:	fef52827          	fsw	fa5,-16(a0)
820003e8:	ff47a787          	flw	fa5,-12(a5)
820003ec:	fef52a27          	fsw	fa5,-12(a0)
820003f0:	ff87a787          	flw	fa5,-8(a5)
820003f4:	fef52c27          	fsw	fa5,-8(a0)
820003f8:	ffc7a787          	flw	fa5,-4(a5)
820003fc:	fef52e27          	fsw	fa5,-4(a0)
82000400:	fce798e3          	bne	a5,a4,820003d0 <sort_predictions.part.0+0x22c>
82000404:	00a00737          	lui	a4,0xa00
82000408:	02e4d733          	divu	a4,s1,a4
8200040c:	08cfa783          	lw	a5,140(t6)
82000410:	00e787b3          	add	a5,a5,a4
82000414:	00100713          	li	a4,1
82000418:	00e78023          	sb	a4,0(a5)
8200041c:	00c12403          	lw	s0,12(sp)
82000420:	00812483          	lw	s1,8(sp)
82000424:	01010113          	add	sp,sp,16
82000428:	00008067          	ret
8200042c:	f8e408e3          	beq	s0,a4,820003bc <sort_predictions.part.0+0x218>
82000430:	fd5ff06f          	j	82000404 <sort_predictions.part.0+0x260>
82000434:	00052787          	flw	fa5,0(a0)
82000438:	00f02027          	fsw	fa5,0(zero) # 0 <_start-0x82000000>
8200043c:	00100073          	ebreak

82000440 <alloc>:
82000440:	840007b7          	lui	a5,0x84000
82000444:	08c7a703          	lw	a4,140(a5) # 8400008c <BUFFERS_AVAIL>
82000448:	01200613          	li	a2,18
8200044c:	00000793          	li	a5,0
82000450:	0100006f          	j	82000460 <alloc+0x20>
82000454:	00178793          	add	a5,a5,1
82000458:	00170713          	add	a4,a4,1 # a00001 <_start-0x815fffff>
8200045c:	02c78a63          	beq	a5,a2,82000490 <alloc+0x50>
82000460:	00074683          	lbu	a3,0(a4)
82000464:	fe0688e3          	beqz	a3,82000454 <alloc+0x14>
82000468:	00070023          	sb	zero,0(a4)
8200046c:	84000737          	lui	a4,0x84000
82000470:	00070713          	mv	a4,a4
82000474:	00279793          	sll	a5,a5,0x2
82000478:	00f707b3          	add	a5,a4,a5
8200047c:	84000737          	lui	a4,0x84000
82000480:	05472503          	lw	a0,84(a4) # 84000054 <base_addr>
82000484:	0007a783          	lw	a5,0(a5)
82000488:	00f50533          	add	a0,a0,a5
8200048c:	00008067          	ret
82000490:	00000513          	li	a0,0
82000494:	00008067          	ret

82000498 <mfree>:
82000498:	840007b7          	lui	a5,0x84000
8200049c:	0547a783          	lw	a5,84(a5) # 84000054 <base_addr>
820004a0:	00100713          	li	a4,1
820004a4:	40f50533          	sub	a0,a0,a5
820004a8:	00a007b7          	lui	a5,0xa00
820004ac:	02f55533          	divu	a0,a0,a5
820004b0:	840007b7          	lui	a5,0x84000
820004b4:	08c7a783          	lw	a5,140(a5) # 8400008c <BUFFERS_AVAIL>
820004b8:	00a787b3          	add	a5,a5,a0
820004bc:	00e78023          	sb	a4,0(a5)
820004c0:	00008067          	ret

820004c4 <preprocess>:
820004c4:	84000337          	lui	t1,0x84000
820004c8:	08c32783          	lw	a5,140(t1) # 8400008c <BUFFERS_AVAIL>
820004cc:	fe010113          	add	sp,sp,-32
820004d0:	f0060553          	fmv.w.x	fa0,a2
820004d4:	00812e23          	sw	s0,28(sp)
820004d8:	00058393          	mv	t2,a1
820004dc:	00912c23          	sw	s1,24(sp)
820004e0:	01212a23          	sw	s2,20(sp)
820004e4:	01312823          	sw	s3,16(sp)
820004e8:	01412623          	sw	s4,12(sp)
820004ec:	01512423          	sw	s5,8(sp)
820004f0:	01612223          	sw	s6,4(sp)
820004f4:	00068413          	mv	s0,a3
820004f8:	00078613          	mv	a2,a5
820004fc:	00000713          	li	a4,0
82000500:	01200593          	li	a1,18
82000504:	0100006f          	j	82000514 <preprocess+0x50>
82000508:	00170713          	add	a4,a4,1
8200050c:	00160613          	add	a2,a2,1
82000510:	30b70663          	beq	a4,a1,8200081c <preprocess+0x358>
82000514:	00064683          	lbu	a3,0(a2)
82000518:	fe0688e3          	beqz	a3,82000508 <preprocess+0x44>
8200051c:	840007b7          	lui	a5,0x84000
82000520:	00271713          	sll	a4,a4,0x2
82000524:	00078793          	mv	a5,a5
82000528:	00060023          	sb	zero,0(a2)
8200052c:	00e787b3          	add	a5,a5,a4
82000530:	840008b7          	lui	a7,0x84000
82000534:	0007a703          	lw	a4,0(a5) # 84000000 <BUFFERS>
82000538:	0548a803          	lw	a6,84(a7) # 84000054 <base_addr>
8200053c:	08c32783          	lw	a5,140(t1)
82000540:	00e802b3          	add	t0,a6,a4
82000544:	00028f13          	mv	t5,t0
82000548:	00078613          	mv	a2,a5
8200054c:	00000713          	li	a4,0
82000550:	01200693          	li	a3,18
82000554:	0100006f          	j	82000564 <preprocess+0xa0>
82000558:	00170713          	add	a4,a4,1
8200055c:	00160613          	add	a2,a2,1
82000560:	2cd70663          	beq	a4,a3,8200082c <preprocess+0x368>
82000564:	00064803          	lbu	a6,0(a2)
82000568:	fe0808e3          	beqz	a6,82000558 <preprocess+0x94>
8200056c:	840007b7          	lui	a5,0x84000
82000570:	00271713          	sll	a4,a4,0x2
82000574:	00078793          	mv	a5,a5
82000578:	00060023          	sb	zero,0(a2)
8200057c:	00e787b3          	add	a5,a5,a4
82000580:	0007a703          	lw	a4,0(a5) # 84000000 <BUFFERS>
82000584:	0548a603          	lw	a2,84(a7)
82000588:	08c32783          	lw	a5,140(t1)
8200058c:	00e60833          	add	a6,a2,a4
82000590:	00080e93          	mv	t4,a6
82000594:	00078613          	mv	a2,a5
82000598:	00000713          	li	a4,0
8200059c:	01200693          	li	a3,18
820005a0:	0100006f          	j	820005b0 <preprocess+0xec>
820005a4:	00170713          	add	a4,a4,1
820005a8:	00160613          	add	a2,a2,1
820005ac:	28d70663          	beq	a4,a3,82000838 <preprocess+0x374>
820005b0:	00064e03          	lbu	t3,0(a2)
820005b4:	fe0e08e3          	beqz	t3,820005a4 <preprocess+0xe0>
820005b8:	840007b7          	lui	a5,0x84000
820005bc:	00271713          	sll	a4,a4,0x2
820005c0:	00078793          	mv	a5,a5
820005c4:	00060023          	sb	zero,0(a2)
820005c8:	00e787b3          	add	a5,a5,a4
820005cc:	0007a703          	lw	a4,0(a5) # 84000000 <BUFFERS>
820005d0:	0548a683          	lw	a3,84(a7)
820005d4:	08c32783          	lw	a5,140(t1)
820005d8:	00e686b3          	add	a3,a3,a4
820005dc:	00068e13          	mv	t3,a3
820005e0:	00000713          	li	a4,0
820005e4:	01200593          	li	a1,18
820005e8:	0100006f          	j	820005f8 <preprocess+0x134>
820005ec:	00170713          	add	a4,a4,1
820005f0:	00178793          	add	a5,a5,1
820005f4:	24b70863          	beq	a4,a1,82000844 <preprocess+0x380>
820005f8:	0007c603          	lbu	a2,0(a5)
820005fc:	fe0608e3          	beqz	a2,820005ec <preprocess+0x128>
82000600:	00078023          	sb	zero,0(a5)
82000604:	840007b7          	lui	a5,0x84000
82000608:	00271713          	sll	a4,a4,0x2
8200060c:	00078793          	mv	a5,a5
82000610:	00e787b3          	add	a5,a5,a4
82000614:	0007a783          	lw	a5,0(a5) # 84000000 <BUFFERS>
82000618:	0548a583          	lw	a1,84(a7)
8200061c:	00f585b3          	add	a1,a1,a5
82000620:	00100793          	li	a5,1
82000624:	008797b3          	sll	a5,a5,s0
82000628:	d007f0d3          	fcvt.s.w	ft1,a5
8200062c:	00058f93          	mv	t6,a1
82000630:	22705663          	blez	t2,8200085c <preprocess+0x398>
82000634:	840007b7          	lui	a5,0x84000
82000638:	0587a587          	flw	fa1,88(a5) # 84000058 <_rodata_region>
8200063c:	840007b7          	lui	a5,0x84000
82000640:	05c7a607          	flw	fa2,92(a5) # 8400005c <_rodata_region+0x4>
82000644:	840007b7          	lui	a5,0x84000
82000648:	0607a007          	flw	ft0,96(a5) # 84000060 <_rodata_region+0x8>
8200064c:	00239393          	sll	t2,t2,0x2
82000650:	00000793          	li	a5,0
82000654:	00000a93          	li	s5,0
82000658:	47f00a13          	li	s4,1151
8200065c:	01700b13          	li	s6,23
82000660:	00852787          	flw	fa5,8(a0)
82000664:	00052687          	flw	fa3,0(a0)
82000668:	00452707          	flw	fa4,4(a0)
8200066c:	00f577d3          	fadd.s	fa5,fa0,fa5
82000670:	60b6f6c3          	fmadd.s	fa3,fa3,fa1,fa2
82000674:	60b7774b          	fnmsub.s	fa4,fa4,fa1,fa2
82000678:	00f289b3          	add	s3,t0,a5
8200067c:	00f804b3          	add	s1,a6,a5
82000680:	6007f7c3          	fmadd.s	fa5,fa5,ft0,fa2
82000684:	c0069753          	fcvt.w.s	a4,fa3,rtz
82000688:	c0071653          	fcvt.w.s	a2,fa4,rtz
8200068c:	00f68933          	add	s2,a3,a5
82000690:	24070713          	add	a4,a4,576
82000694:	c0079453          	fcvt.w.s	s0,fa5,rtz
82000698:	00e9a023          	sw	a4,0(s3)
8200069c:	24060613          	add	a2,a2,576
820006a0:	00c4a023          	sw	a2,0(s1)
820006a4:	00892023          	sw	s0,0(s2)
820006a8:	00478793          	add	a5,a5,4
820006ac:	04ea6863          	bltu	s4,a4,820006fc <preprocess+0x238>
820006b0:	04ca6663          	bltu	s4,a2,820006fc <preprocess+0x238>
820006b4:	002a9493          	sll	s1,s5,0x2
820006b8:	009289b3          	add	s3,t0,s1
820006bc:	00980933          	add	s2,a6,s1
820006c0:	009684b3          	add	s1,a3,s1
820006c4:	028b6c63          	bltu	s6,s0,820006fc <preprocess+0x238>
820006c8:	00c52787          	flw	fa5,12(a0)
820006cc:	00e9a023          	sw	a4,0(s3)
820006d0:	00c92023          	sw	a2,0(s2)
820006d4:	6017f7c3          	fmadd.s	fa5,fa5,ft1,fa2
820006d8:	0084a023          	sw	s0,0(s1)
820006dc:	84000437          	lui	s0,0x84000
820006e0:	06442707          	flw	fa4,100(s0) # 84000064 <_rodata_region+0xc>
820006e4:	01558633          	add	a2,a1,s5
820006e8:	07f00713          	li	a4,127
820006ec:	a0f71453          	flt.s	s0,fa4,fa5
820006f0:	001a8a93          	add	s5,s5,1
820006f4:	16040e63          	beqz	s0,82000870 <preprocess+0x3ac>
820006f8:	00e60023          	sb	a4,0(a2)
820006fc:	01450513          	add	a0,a0,20
82000700:	f6f390e3          	bne	t2,a5,82000660 <preprocess+0x19c>
82000704:	84000737          	lui	a4,0x84000
82000708:	0548a783          	lw	a5,84(a7)
8200070c:	05072503          	lw	a0,80(a4) # 84000050 <LIDAR_IMAGE_BUFFER>
82000710:	00a78533          	add	a0,a5,a0
82000714:	080a8063          	beqz	s5,82000794 <preprocess+0x2d0>
82000718:	00080613          	mv	a2,a6
8200071c:	002a9493          	sll	s1,s5,0x2
82000720:	00007937          	lui	s2,0x7
82000724:	00028813          	mv	a6,t0
82000728:	009604b3          	add	s1,a2,s1
8200072c:	c0090913          	add	s2,s2,-1024 # 6c00 <_start-0x81ff9400>
82000730:	00062783          	lw	a5,0(a2)
82000734:	00082283          	lw	t0,0(a6)
82000738:	0006a403          	lw	s0,0(a3)
8200073c:	032787b3          	mul	a5,a5,s2
82000740:	00129713          	sll	a4,t0,0x1
82000744:	00570733          	add	a4,a4,t0
82000748:	00371713          	sll	a4,a4,0x3
8200074c:	0005c283          	lbu	t0,0(a1)
82000750:	00460613          	add	a2,a2,4
82000754:	00480813          	add	a6,a6,4
82000758:	01829393          	sll	t2,t0,0x18
8200075c:	4183d393          	sra	t2,t2,0x18
82000760:	00468693          	add	a3,a3,4
82000764:	00e787b3          	add	a5,a5,a4
82000768:	008787b3          	add	a5,a5,s0
8200076c:	00f507b3          	add	a5,a0,a5
82000770:	0007c703          	lbu	a4,0(a5)
82000774:	00158593          	add	a1,a1,1
82000778:	01871413          	sll	s0,a4,0x18
8200077c:	41845413          	sra	s0,s0,0x18
82000780:	00745463          	bge	s0,t2,82000788 <preprocess+0x2c4>
82000784:	00028713          	mv	a4,t0
82000788:	00e78023          	sb	a4,0(a5)
8200078c:	fa9612e3          	bne	a2,s1,82000730 <preprocess+0x26c>
82000790:	0548a783          	lw	a5,84(a7)
82000794:	00a00737          	lui	a4,0xa00
82000798:	40ff0f33          	sub	t5,t5,a5
8200079c:	02ef5f33          	divu	t5,t5,a4
820007a0:	08c32683          	lw	a3,140(t1)
820007a4:	00100793          	li	a5,1
820007a8:	01e686b3          	add	a3,a3,t5
820007ac:	00f68023          	sb	a5,0(a3)
820007b0:	0548a603          	lw	a2,84(a7)
820007b4:	08c32683          	lw	a3,140(t1)
820007b8:	40ce8eb3          	sub	t4,t4,a2
820007bc:	02eedeb3          	divu	t4,t4,a4
820007c0:	01d686b3          	add	a3,a3,t4
820007c4:	00f68023          	sb	a5,0(a3)
820007c8:	0548a603          	lw	a2,84(a7)
820007cc:	08c32683          	lw	a3,140(t1)
820007d0:	40ce0e33          	sub	t3,t3,a2
820007d4:	02ee5e33          	divu	t3,t3,a4
820007d8:	01c686b3          	add	a3,a3,t3
820007dc:	00f68023          	sb	a5,0(a3)
820007e0:	0548a603          	lw	a2,84(a7)
820007e4:	08c32683          	lw	a3,140(t1)
820007e8:	40cf8fb3          	sub	t6,t6,a2
820007ec:	02efdfb3          	divu	t6,t6,a4
820007f0:	01f68733          	add	a4,a3,t6
820007f4:	00f70023          	sb	a5,0(a4) # a00000 <_start-0x81600000>
820007f8:	01c12403          	lw	s0,28(sp)
820007fc:	01812483          	lw	s1,24(sp)
82000800:	01412903          	lw	s2,20(sp)
82000804:	01012983          	lw	s3,16(sp)
82000808:	00c12a03          	lw	s4,12(sp)
8200080c:	00812a83          	lw	s5,8(sp)
82000810:	00412b03          	lw	s6,4(sp)
82000814:	02010113          	add	sp,sp,32
82000818:	00008067          	ret
8200081c:	00000f13          	li	t5,0
82000820:	00000293          	li	t0,0
82000824:	840008b7          	lui	a7,0x84000
82000828:	d21ff06f          	j	82000548 <preprocess+0x84>
8200082c:	00000e93          	li	t4,0
82000830:	00000813          	li	a6,0
82000834:	d61ff06f          	j	82000594 <preprocess+0xd0>
82000838:	00000e13          	li	t3,0
8200083c:	00000693          	li	a3,0
82000840:	da1ff06f          	j	820005e0 <preprocess+0x11c>
82000844:	00100793          	li	a5,1
82000848:	008797b3          	sll	a5,a5,s0
8200084c:	d007f0d3          	fcvt.s.w	ft1,a5
82000850:	00000f93          	li	t6,0
82000854:	00000593          	li	a1,0
82000858:	dc704ee3          	bgtz	t2,82000634 <preprocess+0x170>
8200085c:	84000737          	lui	a4,0x84000
82000860:	0548a783          	lw	a5,84(a7) # 84000054 <base_addr>
82000864:	05072503          	lw	a0,80(a4) # 84000050 <LIDAR_IMAGE_BUFFER>
82000868:	00a78533          	add	a0,a5,a0
8200086c:	f29ff06f          	j	82000794 <preprocess+0x2d0>
82000870:	c0079753          	fcvt.w.s	a4,fa5,rtz
82000874:	01871713          	sll	a4,a4,0x18
82000878:	41875713          	sra	a4,a4,0x18
8200087c:	e6071ee3          	bnez	a4,820006f8 <preprocess+0x234>
82000880:	00100713          	li	a4,1
82000884:	e75ff06f          	j	820006f8 <preprocess+0x234>

82000888 <quaternion_to_matrix>:
82000888:	00452607          	flw	fa2,4(a0)
8200088c:	00052707          	flw	fa4,0(a0)
82000890:	00852787          	flw	fa5,8(a0)
82000894:	10c675d3          	fmul.s	fa1,fa2,fa2
82000898:	00c52687          	flw	fa3,12(a0)
8200089c:	10c772d3          	fmul.s	ft5,fa4,fa2
820008a0:	10f77353          	fmul.s	ft6,fa4,fa5
820008a4:	10d6f053          	fmul.s	ft0,fa3,fa3
820008a8:	58e77543          	fmadd.s	fa0,fa4,fa4,fa1
820008ac:	10d77753          	fmul.s	fa4,fa4,fa3
820008b0:	840007b7          	lui	a5,0x84000
820008b4:	30d67143          	fmadd.s	ft2,fa2,fa3,ft6
820008b8:	00f7f243          	fmadd.s	ft4,fa5,fa5,ft0
820008bc:	50f7f543          	fmadd.s	fa0,fa5,fa5,fa0
820008c0:	70f671c7          	fmsub.s	ft3,fa2,fa5,fa4
820008c4:	0005f0d3          	fadd.s	ft1,fa1,ft0
820008c8:	70f67743          	fmadd.s	fa4,fa2,fa5,fa4
820008cc:	30d67647          	fmsub.s	fa2,fa2,fa3,ft6
820008d0:	00057553          	fadd.s	fa0,fa0,ft0
820008d4:	28d7f047          	fmsub.s	ft0,fa5,fa3,ft5
820008d8:	28d7f6c3          	fmadd.s	fa3,fa5,fa3,ft5
820008dc:	58f7f7c3          	fmadd.s	fa5,fa5,fa5,fa1
820008e0:	0687a587          	flw	fa1,104(a5) # 84000068 <_rodata_region+0x10>
820008e4:	840007b7          	lui	a5,0x84000
820008e8:	06c7a287          	flw	ft5,108(a5) # 8400006c <_rodata_region+0x14>
820008ec:	18a5f5d3          	fdiv.s	fa1,fa1,fa0
820008f0:	28b2724b          	fnmsub.s	ft4,ft4,fa1,ft5
820008f4:	10b1f1d3          	fmul.s	ft3,ft3,fa1
820008f8:	10b17153          	fmul.s	ft2,ft2,fa1
820008fc:	10b77753          	fmul.s	fa4,fa4,fa1
82000900:	28b0f0cb          	fnmsub.s	ft1,ft1,fa1,ft5
82000904:	10b07553          	fmul.s	fa0,ft0,fa1
82000908:	10b67653          	fmul.s	fa2,fa2,fa1
8200090c:	10b6f6d3          	fmul.s	fa3,fa3,fa1
82000910:	28b7f7cb          	fnmsub.s	fa5,fa5,fa1,ft5
82000914:	0045a027          	fsw	ft4,0(a1)
82000918:	0035a227          	fsw	ft3,4(a1)
8200091c:	0025a427          	fsw	ft2,8(a1)
82000920:	00e5a627          	fsw	fa4,12(a1)
82000924:	0015a827          	fsw	ft1,16(a1)
82000928:	00a5aa27          	fsw	fa0,20(a1)
8200092c:	00c5ac27          	fsw	fa2,24(a1)
82000930:	00d5ae27          	fsw	fa3,28(a1)
82000934:	02f5a027          	fsw	fa5,32(a1)
82000938:	00008067          	ret

8200093c <rotate>:
8200093c:	00452787          	flw	fa5,4(a0)
82000940:	00462687          	flw	fa3,4(a2)
82000944:	00052587          	flw	fa1,0(a0)
82000948:	00062707          	flw	fa4,0(a2)
8200094c:	10f6f6d3          	fmul.s	fa3,fa3,fa5
82000950:	00852607          	flw	fa2,8(a0)
82000954:	00862787          	flw	fa5,8(a2)
82000958:	68b77743          	fmadd.s	fa4,fa4,fa1,fa3
8200095c:	70c7f7c3          	fmadd.s	fa5,fa5,fa2,fa4
82000960:	00f5a027          	fsw	fa5,0(a1)
82000964:	00452787          	flw	fa5,4(a0)
82000968:	01062687          	flw	fa3,16(a2)
8200096c:	00c62707          	flw	fa4,12(a2)
82000970:	00052587          	flw	fa1,0(a0)
82000974:	10f6f6d3          	fmul.s	fa3,fa3,fa5
82000978:	00852607          	flw	fa2,8(a0)
8200097c:	01462787          	flw	fa5,20(a2)
82000980:	68b77743          	fmadd.s	fa4,fa4,fa1,fa3
82000984:	70c7f7c3          	fmadd.s	fa5,fa5,fa2,fa4
82000988:	00f5a227          	fsw	fa5,4(a1)
8200098c:	00008067          	ret

82000990 <sort_predictions>:
82000990:	00059463          	bnez	a1,82000998 <sort_predictions+0x8>
82000994:	00008067          	ret
82000998:	80dff06f          	j	820001a4 <sort_predictions.part.0>

8200099c <refine_predictions>:
8200099c:	f9010113          	add	sp,sp,-112
820009a0:	05512a23          	sw	s5,84(sp)
820009a4:	00070a93          	mv	s5,a4
820009a8:	00072703          	lw	a4,0(a4)
820009ac:	06812423          	sw	s0,104(sp)
820009b0:	05312e23          	sw	s3,92(sp)
820009b4:	05412c23          	sw	s4,88(sp)
820009b8:	05712623          	sw	s7,76(sp)
820009bc:	05812423          	sw	s8,72(sp)
820009c0:	05912223          	sw	s9,68(sp)
820009c4:	06112623          	sw	ra,108(sp)
820009c8:	06912223          	sw	s1,100(sp)
820009cc:	07212023          	sw	s2,96(sp)
820009d0:	05612823          	sw	s6,80(sp)
820009d4:	00050a13          	mv	s4,a0
820009d8:	f0088253          	fmv.w.x	ft4,a7
820009dc:	07012087          	flw	ft1,112(sp)
820009e0:	07412107          	flw	ft2,116(sp)
820009e4:	07812587          	flw	fa1,120(sp)
820009e8:	07c12983          	lw	s3,124(sp)
820009ec:	08014b83          	lbu	s7,128(sp)
820009f0:	00060c13          	mv	s8,a2
820009f4:	00068c93          	mv	s9,a3
820009f8:	00078413          	mv	s0,a5
820009fc:	00080513          	mv	a0,a6
82000a00:	0ee05e63          	blez	a4,82000afc <refine_predictions+0x160>
82000a04:	840007b7          	lui	a5,0x84000
82000a08:	05c7a687          	flw	fa3,92(a5) # 8400005c <_rodata_region+0x4>
82000a0c:	840007b7          	lui	a5,0x84000
82000a10:	0707a607          	flw	fa2,112(a5) # 84000070 <_rodata_region+0x18>
82000a14:	000027b7          	lui	a5,0x2
82000a18:	f8778793          	add	a5,a5,-121 # 1f87 <_start-0x81ffe079>
82000a1c:	00060e93          	mv	t4,a2
82000a20:	00000f13          	li	t5,0
82000a24:	00700293          	li	t0,7
82000a28:	47800f93          	li	t6,1144
82000a2c:	00758493          	add	s1,a1,7
82000a30:	00f583b3          	add	t2,a1,a5
82000a34:	000ea707          	flw	fa4,0(t4)
82000a38:	004ea787          	flw	fa5,4(t4)
82000a3c:	00d77753          	fadd.s	fa4,fa4,fa3
82000a40:	00d7f7d3          	fadd.s	fa5,fa5,fa3
82000a44:	c0071e53          	fcvt.w.s	t3,fa4,rtz
82000a48:	c0079353          	fcvt.w.s	t1,fa5,rtz
82000a4c:	040e0e13          	add	t3,t3,64
82000a50:	04030313          	add	t1,t1,64
82000a54:	000e0793          	mv	a5,t3
82000a58:	005e5463          	bge	t3,t0,82000a60 <refine_predictions+0xc4>
82000a5c:	00700793          	li	a5,7
82000a60:	ff978813          	add	a6,a5,-7
82000a64:	00030713          	mv	a4,t1
82000a68:	00535463          	bge	t1,t0,82000a70 <refine_predictions+0xd4>
82000a6c:	00700713          	li	a4,7
82000a70:	ff970713          	add	a4,a4,-7
82000a74:	000e0613          	mv	a2,t3
82000a78:	01cfd463          	bge	t6,t3,82000a80 <refine_predictions+0xe4>
82000a7c:	47800613          	li	a2,1144
82000a80:	00760893          	add	a7,a2,7
82000a84:	00030593          	mv	a1,t1
82000a88:	006fd463          	bge	t6,t1,82000a90 <refine_predictions+0xf4>
82000a8c:	47800593          	li	a1,1144
82000a90:	00758693          	add	a3,a1,7
82000a94:	42d75663          	bge	a4,a3,82000ec0 <refine_predictions+0x524>
82000a98:	00359693          	sll	a3,a1,0x3
82000a9c:	00371913          	sll	s2,a4,0x3
82000aa0:	00e90933          	add	s2,s2,a4
82000aa4:	00b68733          	add	a4,a3,a1
82000aa8:	00791913          	sll	s2,s2,0x7
82000aac:	00c486b3          	add	a3,s1,a2
82000ab0:	00c385b3          	add	a1,t2,a2
82000ab4:	00771713          	sll	a4,a4,0x7
82000ab8:	ff278793          	add	a5,a5,-14
82000abc:	012686b3          	add	a3,a3,s2
82000ac0:	00e585b3          	add	a1,a1,a4
82000ac4:	40c78633          	sub	a2,a5,a2
82000ac8:	3f185863          	bge	a6,a7,82000eb8 <refine_predictions+0x51c>
82000acc:	00d607b3          	add	a5,a2,a3
82000ad0:	0080006f          	j	82000ad8 <refine_predictions+0x13c>
82000ad4:	3ef68263          	beq	a3,a5,82000eb8 <refine_predictions+0x51c>
82000ad8:	0007c703          	lbu	a4,0(a5)
82000adc:	00178793          	add	a5,a5,1
82000ae0:	01871713          	sll	a4,a4,0x18
82000ae4:	41875713          	sra	a4,a4,0x18
82000ae8:	fee056e3          	blez	a4,82000ad4 <refine_predictions+0x138>
82000aec:	000aa783          	lw	a5,0(s5)
82000af0:	001f0f13          	add	t5,t5,1
82000af4:	008e8e93          	add	t4,t4,8
82000af8:	f2ff4ee3          	blt	t5,a5,82000a34 <refine_predictions+0x98>
82000afc:	01c10593          	add	a1,sp,28
82000b00:	06b12c27          	fsw	fa1,120(sp)
82000b04:	06212a27          	fsw	ft2,116(sp)
82000b08:	06112827          	fsw	ft1,112(sp)
82000b0c:	00412627          	fsw	ft4,12(sp)
82000b10:	d79ff0ef          	jal	82000888 <quaternion_to_matrix>
82000b14:	000aa783          	lw	a5,0(s5)
82000b18:	00c12207          	flw	ft4,12(sp)
82000b1c:	07012087          	flw	ft1,112(sp)
82000b20:	07412107          	flw	ft2,116(sp)
82000b24:	07812587          	flw	fa1,120(sp)
82000b28:	0af05063          	blez	a5,82000bc8 <refine_predictions+0x22c>
82000b2c:	840007b7          	lui	a5,0x84000
82000b30:	0747a787          	flw	fa5,116(a5) # 84000074 <_rodata_region+0x1c>
82000b34:	02412307          	flw	ft6,36(sp)
82000b38:	03012287          	flw	ft5,48(sp)
82000b3c:	840007b7          	lui	a5,0x84000
82000b40:	10f37353          	fmul.s	ft6,ft6,fa5
82000b44:	10f2f2d3          	fmul.s	ft5,ft5,fa5
82000b48:	01c12e07          	flw	ft8,28(sp)
82000b4c:	02012887          	flw	fa7,32(sp)
82000b50:	02812807          	flw	fa6,40(sp)
82000b54:	02c12387          	flw	ft7,44(sp)
82000b58:	0587a007          	flw	ft0,88(a5) # 84000058 <_rodata_region>
82000b5c:	840007b7          	lui	a5,0x84000
82000b60:	0787a507          	flw	fa0,120(a5) # 84000078 <_rodata_region+0x20>
82000b64:	00000713          	li	a4,0
82000b68:	000c0793          	mv	a5,s8
82000b6c:	0007a787          	flw	fa5,0(a5)
82000b70:	0047a707          	flw	fa4,4(a5)
82000b74:	00042607          	flw	fa2,0(s0)
82000b78:	1807f7d3          	fdiv.s	fa5,fa5,ft0
82000b7c:	20e71753          	fneg.s	fa4,fa4
82000b80:	00442187          	flw	ft3,4(s0)
82000b84:	00878793          	add	a5,a5,8
82000b88:	00170713          	add	a4,a4,1
82000b8c:	18077753          	fdiv.s	fa4,fa4,ft0
82000b90:	08a7f7d3          	fsub.s	fa5,fa5,fa0
82000b94:	00a77753          	fadd.s	fa4,fa4,fa0
82000b98:	111776d3          	fmul.s	fa3,fa4,fa7
82000b9c:	10777753          	fmul.s	fa4,fa4,ft7
82000ba0:	69c7f6c3          	fmadd.s	fa3,fa5,ft8,fa3
82000ba4:	7107f7c3          	fmadd.s	fa5,fa5,fa6,fa4
82000ba8:	0066f753          	fadd.s	fa4,fa3,ft6
82000bac:	0057f7d3          	fadd.s	fa5,fa5,ft5
82000bb0:	00e67753          	fadd.s	fa4,fa2,fa4
82000bb4:	0037f7d3          	fadd.s	fa5,fa5,ft3
82000bb8:	fee7ac27          	fsw	fa4,-8(a5)
82000bbc:	fef7ae27          	fsw	fa5,-4(a5)
82000bc0:	000aa683          	lw	a3,0(s5)
82000bc4:	fad744e3          	blt	a4,a3,82000b6c <refine_predictions+0x1d0>
82000bc8:	84000937          	lui	s2,0x84000
82000bcc:	08c92703          	lw	a4,140(s2) # 8400008c <BUFFERS_AVAIL>
82000bd0:	00000793          	li	a5,0
82000bd4:	01200613          	li	a2,18
82000bd8:	0100006f          	j	82000be8 <refine_predictions+0x24c>
82000bdc:	00178793          	add	a5,a5,1
82000be0:	00170713          	add	a4,a4,1
82000be4:	34c78663          	beq	a5,a2,82000f30 <refine_predictions+0x594>
82000be8:	00074683          	lbu	a3,0(a4)
82000bec:	fe0688e3          	beqz	a3,82000bdc <refine_predictions+0x240>
82000bf0:	00070023          	sb	zero,0(a4)
82000bf4:	84000737          	lui	a4,0x84000
82000bf8:	00279793          	sll	a5,a5,0x2
82000bfc:	00070713          	mv	a4,a4
82000c00:	840004b7          	lui	s1,0x84000
82000c04:	00f707b3          	add	a5,a4,a5
82000c08:	0007a783          	lw	a5,0(a5)
82000c0c:	0544ab03          	lw	s6,84(s1) # 84000054 <base_addr>
82000c10:	00fb0b33          	add	s6,s6,a5
82000c14:	000aa783          	lw	a5,0(s5)
82000c18:	32f05463          	blez	a5,82000f40 <refine_predictions+0x5a4>
82000c1c:	10427553          	fmul.s	fa0,ft4,ft4
82000c20:	840007b7          	lui	a5,0x84000
82000c24:	07c7a007          	flw	ft0,124(a5) # 8400007c <_rodata_region+0x24>
82000c28:	000c8513          	mv	a0,s9
82000c2c:	00000813          	li	a6,0
82000c30:	00000c93          	li	s9,0
82000c34:	000c2787          	flw	fa5,0(s8)
82000c38:	00042607          	flw	fa2,0(s0)
82000c3c:	004c2707          	flw	fa4,4(s8)
82000c40:	00442687          	flw	fa3,4(s0)
82000c44:	08c7f7d3          	fsub.s	fa5,fa5,fa2
82000c48:	002c9793          	sll	a5,s9,0x2
82000c4c:	08d77753          	fsub.s	fa4,fa4,fa3
82000c50:	019787b3          	add	a5,a5,s9
82000c54:	00279793          	sll	a5,a5,0x2
82000c58:	00478713          	add	a4,a5,4
82000c5c:	00eb05b3          	add	a1,s6,a4
82000c60:	10e77753          	fmul.s	fa4,fa4,fa4
82000c64:	00c78713          	add	a4,a5,12
82000c68:	00eb0633          	add	a2,s6,a4
82000c6c:	01078713          	add	a4,a5,16
82000c70:	00eb06b3          	add	a3,s6,a4
82000c74:	70f7f7c3          	fmadd.s	fa5,fa5,fa5,fa4
82000c78:	00878713          	add	a4,a5,8
82000c7c:	00eb0733          	add	a4,s6,a4
82000c80:	00fb07b3          	add	a5,s6,a5
82000c84:	a0f518d3          	flt.s	a7,fa0,fa5
82000c88:	04089063          	bnez	a7,82000cc8 <refine_predictions+0x32c>
82000c8c:	0005a027          	fsw	ft0,0(a1)
82000c90:	000c2707          	flw	fa4,0(s8)
82000c94:	1010f6d3          	fmul.s	fa3,ft1,ft1
82000c98:	00e62027          	fsw	fa4,0(a2)
82000c9c:	004c2707          	flw	fa4,4(s8)
82000ca0:	a0f69653          	flt.s	a2,fa3,fa5
82000ca4:	00e6a027          	fsw	fa4,0(a3)
82000ca8:	00052787          	flw	fa5,0(a0)
82000cac:	26060a63          	beqz	a2,82000f20 <refine_predictions+0x584>
82000cb0:	1027f7d3          	fmul.s	fa5,fa5,ft2
82000cb4:	00f7a027          	fsw	fa5,0(a5)
82000cb8:	00052787          	flw	fa5,0(a0)
82000cbc:	1027f7d3          	fmul.s	fa5,fa5,ft2
82000cc0:	00f72027          	fsw	fa5,0(a4) # 84000000 <BUFFERS>
82000cc4:	001c8c93          	add	s9,s9,1
82000cc8:	000aa783          	lw	a5,0(s5)
82000ccc:	00180813          	add	a6,a6,1
82000cd0:	008c0c13          	add	s8,s8,8
82000cd4:	00450513          	add	a0,a0,4
82000cd8:	f4f84ee3          	blt	a6,a5,82000c34 <refine_predictions+0x298>
82000cdc:	000c8c63          	beqz	s9,82000cf4 <refine_predictions+0x358>
82000ce0:	000c8593          	mv	a1,s9
82000ce4:	000b0513          	mv	a0,s6
82000ce8:	06b12c27          	fsw	fa1,120(sp)
82000cec:	cb8ff0ef          	jal	820001a4 <sort_predictions.part.0>
82000cf0:	07812587          	flw	fa1,120(sp)
82000cf4:	000c8413          	mv	s0,s9
82000cf8:	0199d463          	bge	s3,s9,82000d00 <refine_predictions+0x364>
82000cfc:	00098413          	mv	s0,s3
82000d00:	008aa023          	sw	s0,0(s5)
82000d04:	84000737          	lui	a4,0x84000
82000d08:	06c72007          	flw	ft0,108(a4) # 8400006c <_rodata_region+0x14>
82000d0c:	000aa783          	lw	a5,0(s5)
82000d10:	18b07053          	fdiv.s	ft0,ft0,fa1
82000d14:	14f05063          	blez	a5,82000e54 <refine_predictions+0x4b8>
82000d18:	840007b7          	lui	a5,0x84000
82000d1c:	0807a087          	flw	ft1,128(a5) # 84000080 <_rodata_region+0x28>
82000d20:	840007b7          	lui	a5,0x84000
82000d24:	0847a107          	flw	ft2,132(a5) # 84000084 <_rodata_region+0x2c>
82000d28:	00000993          	li	s3,0
82000d2c:	000aa783          	lw	a5,0(s5)
82000d30:	413785b3          	sub	a1,a5,s3
82000d34:	03378663          	beq	a5,s3,82000d60 <refine_predictions+0x3c4>
82000d38:	000b0513          	mv	a0,s6
82000d3c:	06b12c27          	fsw	fa1,120(sp)
82000d40:	00012627          	fsw	ft0,12(sp)
82000d44:	c60ff0ef          	jal	820001a4 <sort_predictions.part.0>
82000d48:	840007b7          	lui	a5,0x84000
82000d4c:	0847a107          	flw	ft2,132(a5) # 84000084 <_rodata_region+0x2c>
82000d50:	840007b7          	lui	a5,0x84000
82000d54:	0807a087          	flw	ft1,128(a5) # 84000080 <_rodata_region+0x28>
82000d58:	07812587          	flw	fa1,120(sp)
82000d5c:	00c12007          	flw	ft0,12(sp)
82000d60:	00cb2787          	flw	fa5,12(s6)
82000d64:	014b0b13          	add	s6,s6,20
82000d68:	00100613          	li	a2,1
82000d6c:	00fa2027          	fsw	fa5,0(s4)
82000d70:	ffcb2787          	flw	fa5,-4(s6)
82000d74:	f0000553          	fmv.w.x	fa0,zero
82000d78:	004a0513          	add	a0,s4,4
82000d7c:	00fa2227          	fsw	fa5,4(s4)
82000d80:	fecb2787          	flw	fa5,-20(s6)
82000d84:	00000693          	li	a3,0
82000d88:	00cb0793          	add	a5,s6,12
82000d8c:	00fa2427          	fsw	fa5,8(s4)
82000d90:	000aa703          	lw	a4,0(s5)
82000d94:	41370733          	sub	a4,a4,s3
82000d98:	02e64863          	blt	a2,a4,82000dc8 <refine_predictions+0x42c>
82000d9c:	0a00006f          	j	82000e3c <refine_predictions+0x4a0>
82000da0:	a0a7a853          	feq.s	a6,fa5,fa0
82000da4:	14080a63          	beqz	a6,82000ef8 <refine_predictions+0x55c>
82000da8:	0005a787          	flw	fa5,0(a1)
82000dac:	00f62027          	fsw	fa5,0(a2)
82000db0:	000aa703          	lw	a4,0(s5)
82000db4:	00168693          	add	a3,a3,1
82000db8:	01478793          	add	a5,a5,20
82000dbc:	41370733          	sub	a4,a4,s3
82000dc0:	fff70713          	add	a4,a4,-1
82000dc4:	06e6dc63          	bge	a3,a4,82000e3c <refine_predictions+0x4a0>
82000dc8:	0007a787          	flw	fa5,0(a5)
82000dcc:	000a2687          	flw	fa3,0(s4)
82000dd0:	0047a707          	flw	fa4,4(a5)
82000dd4:	00052607          	flw	fa2,0(a0)
82000dd8:	08d7f7d3          	fsub.s	fa5,fa5,fa3
82000ddc:	ff87a687          	flw	fa3,-8(a5)
82000de0:	08c77753          	fsub.s	fa4,fa4,fa2
82000de4:	ff878713          	add	a4,a5,-8
82000de8:	10e77753          	fmul.s	fa4,fa4,fa4
82000dec:	70f7f7c3          	fmadd.s	fa5,fa5,fa5,fa4
82000df0:	a0d79653          	flt.s	a2,fa5,fa3
82000df4:	00061463          	bnez	a2,82000dfc <refine_predictions+0x460>
82000df8:	ff87a787          	flw	fa5,-8(a5)
82000dfc:	00f72027          	fsw	fa5,0(a4)
82000e00:	00072787          	flw	fa5,0(a4)
82000e04:	ffc78593          	add	a1,a5,-4
82000e08:	ff478613          	add	a2,a5,-12
82000e0c:	f80b9ae3          	bnez	s7,82000da0 <refine_predictions+0x404>
82000e10:	a0179853          	flt.s	a6,fa5,ft1
82000e14:	0e080263          	beqz	a6,82000ef8 <refine_predictions+0x55c>
82000e18:	0005a787          	flw	fa5,0(a1)
82000e1c:	00168693          	add	a3,a3,1
82000e20:	01478793          	add	a5,a5,20
82000e24:	1027f7d3          	fmul.s	fa5,fa5,ft2
82000e28:	00f62027          	fsw	fa5,0(a2)
82000e2c:	000aa703          	lw	a4,0(s5)
82000e30:	41370733          	sub	a4,a4,s3
82000e34:	fff70713          	add	a4,a4,-1
82000e38:	f8e6c8e3          	blt	a3,a4,82000dc8 <refine_predictions+0x42c>
82000e3c:	000aa783          	lw	a5,0(s5)
82000e40:	00198993          	add	s3,s3,1
82000e44:	00f9d863          	bge	s3,a5,82000e54 <refine_predictions+0x4b8>
82000e48:	03200793          	li	a5,50
82000e4c:	00ca0a13          	add	s4,s4,12
82000e50:	ecf99ee3          	bne	s3,a5,82000d2c <refine_predictions+0x390>
82000e54:	03200793          	li	a5,50
82000e58:	0087d463          	bge	a5,s0,82000e60 <refine_predictions+0x4c4>
82000e5c:	03200413          	li	s0,50
82000e60:	0544a783          	lw	a5,84(s1)
82000e64:	00a006b7          	lui	a3,0xa00
82000e68:	08c92703          	lw	a4,140(s2)
82000e6c:	40fb07b3          	sub	a5,s6,a5
82000e70:	02d7d7b3          	divu	a5,a5,a3
82000e74:	008aa023          	sw	s0,0(s5)
82000e78:	00f70733          	add	a4,a4,a5
82000e7c:	00100793          	li	a5,1
82000e80:	00f70023          	sb	a5,0(a4)
82000e84:	06c12083          	lw	ra,108(sp)
82000e88:	06812403          	lw	s0,104(sp)
82000e8c:	06412483          	lw	s1,100(sp)
82000e90:	06012903          	lw	s2,96(sp)
82000e94:	05c12983          	lw	s3,92(sp)
82000e98:	05812a03          	lw	s4,88(sp)
82000e9c:	05412a83          	lw	s5,84(sp)
82000ea0:	05012b03          	lw	s6,80(sp)
82000ea4:	04c12b83          	lw	s7,76(sp)
82000ea8:	04812c03          	lw	s8,72(sp)
82000eac:	04412c83          	lw	s9,68(sp)
82000eb0:	07010113          	add	sp,sp,112
82000eb4:	00008067          	ret
82000eb8:	48068693          	add	a3,a3,1152 # a00480 <_start-0x815ffb80>
82000ebc:	c0d596e3          	bne	a1,a3,82000ac8 <refine_predictions+0x12c>
82000ec0:	00331793          	sll	a5,t1,0x3
82000ec4:	006787b3          	add	a5,a5,t1
82000ec8:	00779793          	sll	a5,a5,0x7
82000ecc:	01c787b3          	add	a5,a5,t3
82000ed0:	00279793          	sll	a5,a5,0x2
82000ed4:	00fc87b3          	add	a5,s9,a5
82000ed8:	0007a787          	flw	fa5,0(a5)
82000edc:	001f0f13          	add	t5,t5,1
82000ee0:	008e8e93          	add	t4,t4,8
82000ee4:	10c7f7d3          	fmul.s	fa5,fa5,fa2
82000ee8:	00f7a027          	fsw	fa5,0(a5)
82000eec:	000aa783          	lw	a5,0(s5)
82000ef0:	b4ff42e3          	blt	t5,a5,82000a34 <refine_predictions+0x98>
82000ef4:	c09ff06f          	j	82000afc <refine_predictions+0x160>
82000ef8:	00072707          	flw	fa4,0(a4)
82000efc:	20b587d3          	fmv.s	fa5,fa1
82000f00:	a0e59853          	flt.s	a6,fa1,fa4
82000f04:	00081463          	bnez	a6,82000f0c <refine_predictions+0x570>
82000f08:	00072787          	flw	fa5,0(a4)
82000f0c:	1007f7d3          	fmul.s	fa5,fa5,ft0
82000f10:	0005a707          	flw	fa4,0(a1)
82000f14:	10e7f7d3          	fmul.s	fa5,fa5,fa4
82000f18:	00f62027          	fsw	fa5,0(a2)
82000f1c:	e95ff06f          	j	82000db0 <refine_predictions+0x414>
82000f20:	00f7a027          	fsw	fa5,0(a5)
82000f24:	00052787          	flw	fa5,0(a0)
82000f28:	00f72027          	fsw	fa5,0(a4)
82000f2c:	d99ff06f          	j	82000cc4 <refine_predictions+0x328>
82000f30:	000aa783          	lw	a5,0(s5)
82000f34:	00000b13          	li	s6,0
82000f38:	840004b7          	lui	s1,0x84000
82000f3c:	cef040e3          	bgtz	a5,82000c1c <refine_predictions+0x280>
82000f40:	00000c93          	li	s9,0
82000f44:	db1ff06f          	j	82000cf4 <refine_predictions+0x358>

82000f48 <main>:
82000f48:	fd010113          	add	sp,sp,-48
82000f4c:	02812423          	sw	s0,40(sp)
82000f50:	800307b7          	lui	a5,0x80030
82000f54:	02112623          	sw	ra,44(sp)
82000f58:	0007a223          	sw	zero,4(a5) # 80030004 <_start-0x1fcfffc>
82000f5c:	0007a023          	sw	zero,0(a5)
82000f60:	840007b7          	lui	a5,0x84000
82000f64:	0487a403          	lw	s0,72(a5) # 84000048 <RISCV_ARGS_BUFFER>
82000f68:	10000537          	lui	a0,0x10000
82000f6c:	00850433          	add	s0,a0,s0
82000f70:	00042783          	lw	a5,0(s0)
82000f74:	02078063          	beqz	a5,82000f94 <main+0x4c>
82000f78:	00042703          	lw	a4,0(s0)
82000f7c:	00100793          	li	a5,1
82000f80:	04f70063          	beq	a4,a5,82000fc0 <main+0x78>
82000f84:	800307b7          	lui	a5,0x80030
82000f88:	00100713          	li	a4,1
82000f8c:	00e7a023          	sw	a4,0(a5) # 80030000 <_start-0x1fd0000>
82000f90:	0000006f          	j	82000f90 <main+0x48>
82000f94:	04042783          	lw	a5,64(s0)
82000f98:	05842683          	lw	a3,88(s0)
82000f9c:	05042603          	lw	a2,80(s0)
82000fa0:	04842583          	lw	a1,72(s0)
82000fa4:	00f50533          	add	a0,a0,a5
82000fa8:	d1cff0ef          	jal	820004c4 <preprocess>
82000fac:	840007b7          	lui	a5,0x84000
82000fb0:	0547a783          	lw	a5,84(a5) # 84000054 <base_addr>
82000fb4:	40f507b3          	sub	a5,a0,a5
82000fb8:	06f42023          	sw	a5,96(s0)
82000fbc:	fc9ff06f          	j	82000f84 <main+0x3c>
82000fc0:	840007b7          	lui	a5,0x84000
82000fc4:	04042303          	lw	t1,64(s0)
82000fc8:	0507a583          	lw	a1,80(a5) # 84000050 <LIDAR_IMAGE_BUFFER>
82000fcc:	04842603          	lw	a2,72(s0)
82000fd0:	05042683          	lw	a3,80(s0)
82000fd4:	08042883          	lw	a7,128(s0)
82000fd8:	08842787          	flw	fa5,136(s0)
82000fdc:	09042707          	flw	fa4,144(s0)
82000fe0:	09842687          	flw	fa3,152(s0)
82000fe4:	0a042703          	lw	a4,160(s0)
82000fe8:	0a844783          	lbu	a5,168(s0)
82000fec:	00a686b3          	add	a3,a3,a0
82000ff0:	00e12623          	sw	a4,12(sp)
82000ff4:	00f12823          	sw	a5,16(sp)
82000ff8:	00a60633          	add	a2,a2,a0
82000ffc:	00b505b3          	add	a1,a0,a1
82001000:	00d12427          	fsw	fa3,8(sp)
82001004:	00e12227          	fsw	fa4,4(sp)
82001008:	00f12027          	fsw	fa5,0(sp)
8200100c:	07040813          	add	a6,s0,112
82001010:	06040793          	add	a5,s0,96
82001014:	05840713          	add	a4,s0,88
82001018:	00a30533          	add	a0,t1,a0
8200101c:	981ff0ef          	jal	8200099c <refine_predictions>
82001020:	f65ff06f          	j	82000f84 <main+0x3c>

セクション .data の逆アセンブル:

84000000 <BUFFERS>:
84000000:	0000                	.2byte	0x0
84000002:	0000                	.2byte	0x0
84000004:	0000                	.2byte	0x0
84000006:	00a0                	.2byte	0xa0
84000008:	0000                	.2byte	0x0
8400000a:	0140                	.2byte	0x140
8400000c:	0000                	.2byte	0x0
8400000e:	01e0                	.2byte	0x1e0
84000010:	0000                	.2byte	0x0
84000012:	0280                	.2byte	0x280
84000014:	0000                	.2byte	0x0
84000016:	0320                	.2byte	0x320
84000018:	0000                	.2byte	0x0
8400001a:	03c0                	.2byte	0x3c0
8400001c:	0000                	.2byte	0x0
8400001e:	0460                	.2byte	0x460
84000020:	0000                	.2byte	0x0
84000022:	0500                	.2byte	0x500
84000024:	0000                	.2byte	0x0
84000026:	05a0                	.2byte	0x5a0
84000028:	0000                	.2byte	0x0
8400002a:	0640                	.2byte	0x640
8400002c:	0000                	.2byte	0x0
8400002e:	06e0                	.2byte	0x6e0
84000030:	0000                	.2byte	0x0
84000032:	0780                	.2byte	0x780
84000034:	0000                	.2byte	0x0
84000036:	0820                	.2byte	0x820
84000038:	0000                	.2byte	0x0
8400003a:	08c0                	.2byte	0x8c0
8400003c:	0000                	.2byte	0x0
8400003e:	0960                	.2byte	0x960
84000040:	0000                	.2byte	0x0
84000042:	0a00                	.2byte	0xa00
84000044:	0000                	.2byte	0x0
84000046:	0aa0                	.2byte	0xaa0

セクション .sdata の逆アセンブル:

84000048 <RISCV_ARGS_BUFFER>:
84000048:	0000                	.2byte	0x0
8400004a:	0ef0                	.2byte	0xef0

8400004c <RECORD_BUFFER>:
8400004c:	0000                	.2byte	0x0
8400004e:	0dc0                	.2byte	0xdc0

84000050 <LIDAR_IMAGE_BUFFER>:
84000050:	0000                	.2byte	0x0
84000052:	0b40                	.2byte	0xb40

84000054 <base_addr>:
84000054:	0000                	.2byte	0x0
84000056:	1000                	.2byte	0x1000

セクション .rodata の逆アセンブル:

84000058 <.rodata>:
84000058:	0000                	.2byte	0x0
8400005a:	4120                	.2byte	0x4120
8400005c:	0000                	.2byte	0x0
8400005e:	3f00                	.2byte	0x3f00
84000060:	0000                	.2byte	0x0
84000062:	40a0                	.2byte	0x40a0
84000064:	0000                	.2byte	0x0
84000066:	42fe                	.2byte	0x42fe
84000068:	0000                	.2byte	0x0
8400006a:	4000                	.2byte	0x4000
8400006c:	0000                	.2byte	0x0
8400006e:	3f80                	.2byte	0x3f80
84000070:	cccd                	.2byte	0xcccd
84000072:	3dcc                	.2byte	0x3dcc
84000074:	0000                	.2byte	0x0
84000076:	3fc0                	.2byte	0x3fc0
84000078:	cccd                	.2byte	0xcccd
8400007a:	424c                	.2byte	0x424c
8400007c:	02f9                	.2byte	0x2f9
8400007e:	5015                	.2byte	0x5015
84000080:	cccd                	.2byte	0xcccd
84000082:	3ecc                	.2byte	0x3ecc
84000084:	d70a                	.2byte	0xd70a
84000086:	23 3c             	Address 0x84000086 is out of bounds.


セクション .sbss の逆アセンブル:

84000088 <ZERO>:
84000088:	0000                	.2byte	0x0
	...

8400008c <BUFFERS_AVAIL>:
8400008c:	0000                	.2byte	0x0
	...

セクション .comment の逆アセンブル:

00000000 <.comment>:
   0:	3a434347          	.4byte	0x3a434347
   4:	2820                	.2byte	0x2820
   6:	65653267          	.4byte	0x65653267
   a:	6535                	.2byte	0x6535
   c:	3334                	.2byte	0x3334
   e:	3030                	.2byte	0x3030
  10:	3831                	.2byte	0x3831
  12:	2029                	.2byte	0x2029
  14:	3231                	.2byte	0x3231
  16:	322e                	.2byte	0x322e
  18:	302e                	.2byte	0x302e
	...

セクション .riscv.attributes の逆アセンブル:

00000000 <.riscv.attributes>:
   0:	2e41                	.2byte	0x2e41
   2:	0000                	.2byte	0x0
   4:	7200                	.2byte	0x7200
   6:	7369                	.2byte	0x7369
   8:	01007663          	bgeu	zero,a6,14 <_start-0x81ffffec>
   c:	0024                	.2byte	0x24
   e:	0000                	.2byte	0x0
  10:	1004                	.2byte	0x1004
  12:	7205                	.2byte	0x7205
  14:	3376                	.2byte	0x3376
  16:	6932                	.2byte	0x6932
  18:	7032                	.2byte	0x7032
  1a:	5f30                	.2byte	0x5f30
  1c:	326d                	.2byte	0x326d
  1e:	3070                	.2byte	0x3070
  20:	665f 7032 5f30      	.byte	0x5f, 0x66, 0x32, 0x70, 0x30, 0x5f
  26:	6d7a                	.2byte	0x6d7a
  28:	756d                	.2byte	0x756d
  2a:	316c                	.2byte	0x316c
  2c:	3070                	.2byte	0x3070
	...
